---
triple:          'arm64-apple-darwin'
binary-path:     a.out
relocations:
  - { offsetInCU: 0x2D97, offset: 0x2D97, size: 0x8, addend: 0x0, symName: __ZNSt3__124__put_character_sequenceB8ue170006IcNS_11char_traitsIcEEEERNS_13basic_ostreamIT_T0_EES7_PKS4_m, symObjAddr: 0x508, symBinAddr: 0x100002644, symSize: 0x1F4 }
  - { offsetInCU: 0x3C00, offset: 0x3C00, size: 0x8, addend: 0x0, symName: __ZNSt3__111__sift_downB8ue170006INS_17_ClassicAlgPolicyERNS_6__lessIvvEEPiEEvT1_OT0_NS_15iterator_traitsIS6_E15difference_typeES6_, symObjAddr: 0x14CC, symBinAddr: 0x100003608, symSize: 0x20C }
  - { offsetInCU: 0x3CD9, offset: 0x3CD9, size: 0x8, addend: 0x0, symName: __ZNSt3__117__floyd_sift_downB8ue170006INS_17_ClassicAlgPolicyERNS_6__lessIvvEEPiEET1_S6_OT0_NS_15iterator_traitsIS6_E15difference_typeE, symObjAddr: 0x1908, symBinAddr: 0x100003A44, symSize: 0x100 }
  - { offsetInCU: 0x4855, offset: 0x4855, size: 0x8, addend: 0x0, symName: __ZNSt3__14sortB8ue170006IPiEEvT_S2_, symObjAddr: 0x330, symBinAddr: 0x10000246C, symSize: 0x2C }
  - { offsetInCU: 0x4897, offset: 0x4897, size: 0x8, addend: 0x0, symName: __ZNSt3__1lsB8ue170006INS_11char_traitsIcEEEERNS_13basic_ostreamIcT_EES6_PKc, symObjAddr: 0x408, symBinAddr: 0x100002544, symSize: 0x48 }
  - { offsetInCU: 0x48DD, offset: 0x48DD, size: 0x8, addend: 0x0, symName: __ZNSt3__14endlB8ue170006IcNS_11char_traitsIcEEEERNS_13basic_ostreamIT_T0_EES7_, symObjAddr: 0x47C, symBinAddr: 0x1000025B8, symSize: 0x58 }
  - { offsetInCU: 0x491D, offset: 0x491D, size: 0x8, addend: 0x0, symName: __ZNSt3__1lsB8ue170006INS_11char_traitsIcEEEERNS_13basic_ostreamIcT_EES6_c, symObjAddr: 0x4D4, symBinAddr: 0x100002610, symSize: 0x34 }
  - { offsetInCU: 0x4963, offset: 0x4963, size: 0x8, addend: 0x0, symName: __ZNSt3__116__pad_and_outputB8ue170006IcNS_11char_traitsIcEEEENS_19ostreambuf_iteratorIT_T0_EES6_PKS4_S8_S8_RNS_8ios_baseES4_, symObjAddr: 0x718, symBinAddr: 0x100002854, symSize: 0x248 }
  - { offsetInCU: 0x4A32, offset: 0x4A32, size: 0x8, addend: 0x0, symName: __ZNSt3__112__to_addressB8ue170006IKcEEPT_S3_, symObjAddr: 0xC94, symBinAddr: 0x100002DD0, symSize: 0x14 }
  - { offsetInCU: 0x4A67, offset: 0x4A67, size: 0x8, addend: 0x0, symName: __ZNSt3__130__libcpp_is_constant_evaluatedB8ue170006Ev, symObjAddr: 0xDC0, symBinAddr: 0x100002EFC, symSize: 0xC }
  - { offsetInCU: 0x4AB7, offset: 0x4AB7, size: 0x8, addend: 0x0, symName: __ZNSt3__19use_facetB8ue170006INS_5ctypeIcEEEERKT_RKNS_6localeE, symObjAddr: 0xF78, symBinAddr: 0x1000030B4, symSize: 0x2C }
  - { offsetInCU: 0x4F84, offset: 0x4F84, size: 0x8, addend: 0x0, symName: __ZNSt3__118__constexpr_strlenB8ue170006EPKc, symObjAddr: 0x1058, symBinAddr: 0x100003194, symSize: 0x24 }
  - { offsetInCU: 0x4FB0, offset: 0x4FB0, size: 0x8, addend: 0x0, symName: __ZNSt3__14sortB8ue170006IPiNS_6__lessIvvEEEEvT_S4_T0_, symObjAddr: 0x107C, symBinAddr: 0x1000031B8, symSize: 0x30 }
  - { offsetInCU: 0x500A, offset: 0x500A, size: 0x8, addend: 0x0, symName: __ZNSt3__111__sort_implB8ue170006INS_17_ClassicAlgPolicyEPiNS_6__lessIvvEEEEvT0_S5_RT1_, symObjAddr: 0x10AC, symBinAddr: 0x1000031E8, symSize: 0xC0 }
  - { offsetInCU: 0x506D, offset: 0x506D, size: 0x8, addend: 0x0, symName: __ZNSt3__123__debug_randomize_rangeB8ue170006INS_17_ClassicAlgPolicyEPiS2_EEvT0_T1_, symObjAddr: 0x116C, symBinAddr: 0x1000032A8, symSize: 0x14 }
  - { offsetInCU: 0x50BE, offset: 0x50BE, size: 0x8, addend: 0x0, symName: __ZNSt3__114__partial_sortB8ue170006INS_17_ClassicAlgPolicyENS_6__lessIvvEEPiS4_EET1_S5_S5_T2_RT0_, symObjAddr: 0x1180, symBinAddr: 0x1000032BC, symSize: 0x94 }
  - { offsetInCU: 0x5146, offset: 0x5146, size: 0x8, addend: 0x0, symName: __ZNSt3__113__unwrap_iterB8ue170006IPiNS_18__unwrap_iter_implIS1_Lb1EEELi0EEEDTclsrT0_8__unwrapclsr3stdE7declvalIT_EEEES5_, symObjAddr: 0x1214, symBinAddr: 0x100003350, symSize: 0x24 }
  - { offsetInCU: 0x518A, offset: 0x518A, size: 0x8, addend: 0x0, symName: __ZNSt3__115__sort_dispatchB8ue170006INS_17_ClassicAlgPolicyEiLi0EEEvPT0_S3_RNS_6__lessIvvEE, symObjAddr: 0x1238, symBinAddr: 0x100003374, symSize: 0x34 }
  - { offsetInCU: 0x51F5, offset: 0x51F5, size: 0x8, addend: 0x0, symName: __ZNSt3__135__check_strict_weak_ordering_sortedB8ue170006IPiNS_6__lessIvvEEEEvT_S4_RT0_, symObjAddr: 0x126C, symBinAddr: 0x1000033A8, symSize: 0x18 }
  - { offsetInCU: 0x52E5, offset: 0x52E5, size: 0x8, addend: 0x0, symName: __ZNSt3__119__partial_sort_implB8ue170006INS_17_ClassicAlgPolicyERNS_6__lessIvvEEPiS5_EET1_S6_S6_T2_OT0_, symObjAddr: 0x129C, symBinAddr: 0x1000033D8, symSize: 0x110 }
  - { offsetInCU: 0x537B, offset: 0x537B, size: 0x8, addend: 0x0, symName: __ZNSt3__111__make_heapB8ue170006INS_17_ClassicAlgPolicyERNS_6__lessIvvEEPiEEvT1_S6_OT0_, symObjAddr: 0x13AC, symBinAddr: 0x1000034E8, symSize: 0xB8 }
  - { offsetInCU: 0x5462, offset: 0x5462, size: 0x8, addend: 0x0, symName: __ZNSt3__111__sort_heapB8ue170006INS_17_ClassicAlgPolicyERNS_6__lessIvvEEPiEEvT1_S6_OT0_, symObjAddr: 0x16D8, symBinAddr: 0x100003814, symSize: 0xA8 }
  - { offsetInCU: 0x5504, offset: 0x5504, size: 0x8, addend: 0x0, symName: __ZNSt3__19iter_swapB8ue170006IPiS1_EEvT_T0_, symObjAddr: 0x1780, symBinAddr: 0x1000038BC, symSize: 0x2C }
  - { offsetInCU: 0x554C, offset: 0x554C, size: 0x8, addend: 0x0, symName: __ZNSt3__14swapB8ue170006IiEEvRT_S2_, symObjAddr: 0x17AC, symBinAddr: 0x1000038E8, symSize: 0x3C }
  - { offsetInCU: 0x55C1, offset: 0x55C1, size: 0x8, addend: 0x0, symName: __ZNSt3__110__pop_heapB8ue170006INS_17_ClassicAlgPolicyENS_6__lessIvvEEPiEEvT1_S5_RT0_NS_15iterator_traitsIS5_E15difference_typeE, symObjAddr: 0x1814, symBinAddr: 0x100003950, symSize: 0xF4 }
  - { offsetInCU: 0x5671, offset: 0x5671, size: 0x8, addend: 0x0, symName: __ZNSt3__19__sift_upB8ue170006INS_17_ClassicAlgPolicyERNS_6__lessIvvEEPiEEvT1_S6_OT0_NS_15iterator_traitsIS6_E15difference_typeE, symObjAddr: 0x1A08, symBinAddr: 0x100003B44, symSize: 0x11C }
  - { offsetInCU: 0x5774, offset: 0x5774, size: 0x8, addend: 0x0, symName: __ZNSt3__112__to_addressB8ue170006IiEEPT_S2_, symObjAddr: 0x1B48, symBinAddr: 0x100003C84, symSize: 0x14 }
  - { offsetInCU: 0x7D8E, offset: 0x7D8E, size: 0x8, addend: 0x0, symName: __Z12binarySearchPiii, symObjAddr: 0x0, symBinAddr: 0x10000213C, symSize: 0xE8 }
  - { offsetInCU: 0x7E18, offset: 0x7E18, size: 0x8, addend: 0x0, symName: __Z8baseCasePiii, symObjAddr: 0xE8, symBinAddr: 0x100002224, symSize: 0x118 }
  - { offsetInCU: 0x7E5C, offset: 0x7E5C, size: 0x8, addend: 0x0, symName: __Z13printContainsv, symObjAddr: 0x200, symBinAddr: 0x10000233C, symSize: 0x28 }
  - { offsetInCU: 0x7E75, offset: 0x7E75, size: 0x8, addend: 0x0, symName: _main, symObjAddr: 0x228, symBinAddr: 0x100002364, symSize: 0x64 }
  - { offsetInCU: 0x7EAB, offset: 0x7EAB, size: 0x8, addend: 0x0, symName: __Z9readArrayi, symObjAddr: 0x28C, symBinAddr: 0x1000023C8, symSize: 0xA4 }
  - { offsetInCU: 0x7F0F, offset: 0x7F0F, size: 0x8, addend: 0x0, symName: __Z8solutionPii, symObjAddr: 0x35C, symBinAddr: 0x100002498, symSize: 0x84 }
  - { offsetInCU: 0x7F8B, offset: 0x7F8B, size: 0x8, addend: 0x0, symName: __Z16printNotContainsv, symObjAddr: 0x3E0, symBinAddr: 0x10000251C, symSize: 0x28 }
  - { offsetInCU: 0x7FA4, offset: 0x7FA4, size: 0x8, addend: 0x0, symName: __ZNSt3__113basic_ostreamIcNS_11char_traitsIcEEElsB8ue170006EPFRS3_S4_E, symObjAddr: 0x450, symBinAddr: 0x10000258C, symSize: 0x2C }
  - { offsetInCU: 0x7FF4, offset: 0x7FF4, size: 0x8, addend: 0x0, symName: __ZNKSt3__113basic_ostreamIcNS_11char_traitsIcEEE6sentrycvbB8ue170006Ev, symObjAddr: 0x6FC, symBinAddr: 0x100002838, symSize: 0x1C }
  - { offsetInCU: 0x8019, offset: 0x8019, size: 0x8, addend: 0x0, symName: __ZNSt3__119ostreambuf_iteratorIcNS_11char_traitsIcEEEC1B8ue170006ERNS_13basic_ostreamIcS2_EE, symObjAddr: 0x960, symBinAddr: 0x100002A9C, symSize: 0x34 }
  - { offsetInCU: 0x804F, offset: 0x804F, size: 0x8, addend: 0x0, symName: __ZNKSt3__18ios_base5flagsB8ue170006Ev, symObjAddr: 0x994, symBinAddr: 0x100002AD0, symSize: 0x18 }
  - { offsetInCU: 0x8076, offset: 0x8076, size: 0x8, addend: 0x0, symName: __ZNKSt3__19basic_iosIcNS_11char_traitsIcEEE4fillB8ue170006Ev, symObjAddr: 0x9AC, symBinAddr: 0x100002AE8, symSize: 0x64 }
  - { offsetInCU: 0x809C, offset: 0x809C, size: 0x8, addend: 0x0, symName: __ZNKSt3__119ostreambuf_iteratorIcNS_11char_traitsIcEEE6failedB8ue170006Ev, symObjAddr: 0xA10, symBinAddr: 0x100002B4C, symSize: 0x24 }
  - { offsetInCU: 0x80C0, offset: 0x80C0, size: 0x8, addend: 0x0, symName: __ZNSt3__19basic_iosIcNS_11char_traitsIcEEE8setstateB8ue170006Ej, symObjAddr: 0xA34, symBinAddr: 0x100002B70, symSize: 0x2C }
  - { offsetInCU: 0x80F4, offset: 0x80F4, size: 0x8, addend: 0x0, symName: __ZNKSt3__18ios_base5widthB8ue170006Ev, symObjAddr: 0xA6C, symBinAddr: 0x100002BA8, symSize: 0x18 }
  - { offsetInCU: 0x811A, offset: 0x811A, size: 0x8, addend: 0x0, symName: __ZNSt3__115basic_streambufIcNS_11char_traitsIcEEE5sputnB8ue170006EPKcl, symObjAddr: 0xA84, symBinAddr: 0x100002BC0, symSize: 0x3C }
  - { offsetInCU: 0x815B, offset: 0x815B, size: 0x8, addend: 0x0, symName: __ZNSt3__112basic_stringIcNS_11char_traitsIcEENS_9allocatorIcEEEC1B8ue170006Emc, symObjAddr: 0xAC0, symBinAddr: 0x100002BFC, symSize: 0x3C }
  - { offsetInCU: 0x81A0, offset: 0x81A0, size: 0x8, addend: 0x0, symName: __ZNKSt3__112basic_stringIcNS_11char_traitsIcEENS_9allocatorIcEEE4dataB8ue170006Ev, symObjAddr: 0xAFC, symBinAddr: 0x100002C38, symSize: 0x28 }
  - { offsetInCU: 0x81C5, offset: 0x81C5, size: 0x8, addend: 0x0, symName: __ZNSt3__18ios_base5widthB8ue170006El, symObjAddr: 0xB24, symBinAddr: 0x100002C60, symSize: 0x2C }
  - { offsetInCU: 0x820A, offset: 0x820A, size: 0x8, addend: 0x0, symName: __ZNSt3__112basic_stringIcNS_11char_traitsIcEENS_9allocatorIcEEEC2B8ue170006Emc, symObjAddr: 0xB50, symBinAddr: 0x100002C8C, symSize: 0x4C }
  - { offsetInCU: 0x8255, offset: 0x8255, size: 0x8, addend: 0x0, symName: __ZNSt3__117__compressed_pairINS_12basic_stringIcNS_11char_traitsIcEENS_9allocatorIcEEE5__repES5_EC1B8ue170006INS_18__default_init_tagESA_EEOT_OT0_, symObjAddr: 0xB9C, symBinAddr: 0x100002CD8, symSize: 0x3C }
  - { offsetInCU: 0x82AB, offset: 0x82AB, size: 0x8, addend: 0x0, symName: __ZNSt3__117__compressed_pairINS_12basic_stringIcNS_11char_traitsIcEENS_9allocatorIcEEE5__repES5_EC2B8ue170006INS_18__default_init_tagESA_EEOT_OT0_, symObjAddr: 0xBD8, symBinAddr: 0x100002D14, symSize: 0x3C }
  - { offsetInCU: 0x8301, offset: 0x8301, size: 0x8, addend: 0x0, symName: __ZNSt3__122__compressed_pair_elemINS_12basic_stringIcNS_11char_traitsIcEENS_9allocatorIcEEE5__repELi0ELb0EEC2B8ue170006ENS_18__default_init_tagE, symObjAddr: 0xC14, symBinAddr: 0x100002D50, symSize: 0x14 }
  - { offsetInCU: 0x8335, offset: 0x8335, size: 0x8, addend: 0x0, symName: __ZNSt3__122__compressed_pair_elemINS_9allocatorIcEELi1ELb1EEC2B8ue170006ENS_18__default_init_tagE, symObjAddr: 0xC28, symBinAddr: 0x100002D64, symSize: 0x2C }
  - { offsetInCU: 0x8368, offset: 0x8368, size: 0x8, addend: 0x0, symName: __ZNSt3__19allocatorIcEC2B8ue170006Ev, symObjAddr: 0xC54, symBinAddr: 0x100002D90, symSize: 0x2C }
  - { offsetInCU: 0x8390, offset: 0x8390, size: 0x8, addend: 0x0, symName: __ZNSt3__116__non_trivial_ifILb1ENS_9allocatorIcEEEC2B8ue170006Ev, symObjAddr: 0xC80, symBinAddr: 0x100002DBC, symSize: 0x14 }
  - { offsetInCU: 0x83B8, offset: 0x83B8, size: 0x8, addend: 0x0, symName: __ZNKSt3__112basic_stringIcNS_11char_traitsIcEENS_9allocatorIcEEE13__get_pointerB8ue170006Ev, symObjAddr: 0xCA8, symBinAddr: 0x100002DE4, symSize: 0x54 }
  - { offsetInCU: 0x83DC, offset: 0x83DC, size: 0x8, addend: 0x0, symName: __ZNKSt3__112basic_stringIcNS_11char_traitsIcEENS_9allocatorIcEEE9__is_longB8ue170006Ev, symObjAddr: 0xCFC, symBinAddr: 0x100002E38, symSize: 0x74 }
  - { offsetInCU: 0x8400, offset: 0x8400, size: 0x8, addend: 0x0, symName: __ZNKSt3__112basic_stringIcNS_11char_traitsIcEENS_9allocatorIcEEE18__get_long_pointerB8ue170006Ev, symObjAddr: 0xD70, symBinAddr: 0x100002EAC, symSize: 0x28 }
  - { offsetInCU: 0x8424, offset: 0x8424, size: 0x8, addend: 0x0, symName: __ZNKSt3__112basic_stringIcNS_11char_traitsIcEENS_9allocatorIcEEE19__get_short_pointerB8ue170006Ev, symObjAddr: 0xD98, symBinAddr: 0x100002ED4, symSize: 0x28 }
  - { offsetInCU: 0x8448, offset: 0x8448, size: 0x8, addend: 0x0, symName: __ZNKSt3__117__compressed_pairINS_12basic_stringIcNS_11char_traitsIcEENS_9allocatorIcEEE5__repES5_E5firstB8ue170006Ev, symObjAddr: 0xDCC, symBinAddr: 0x100002F08, symSize: 0x24 }
  - { offsetInCU: 0x846C, offset: 0x846C, size: 0x8, addend: 0x0, symName: __ZNKSt3__122__compressed_pair_elemINS_12basic_stringIcNS_11char_traitsIcEENS_9allocatorIcEEE5__repELi0ELb0EE5__getB8ue170006Ev, symObjAddr: 0xDF0, symBinAddr: 0x100002F2C, symSize: 0x14 }
  - { offsetInCU: 0x8491, offset: 0x8491, size: 0x8, addend: 0x0, symName: __ZNSt3__114pointer_traitsIPKcE10pointer_toB8ue170006ERS1_, symObjAddr: 0xE04, symBinAddr: 0x100002F40, symSize: 0x14 }
  - { offsetInCU: 0x84B4, offset: 0x84B4, size: 0x8, addend: 0x0, symName: __ZNSt3__119ostreambuf_iteratorIcNS_11char_traitsIcEEEC2B8ue170006ERNS_13basic_ostreamIcS2_EE, symObjAddr: 0xE18, symBinAddr: 0x100002F54, symSize: 0x68 }
  - { offsetInCU: 0x84EA, offset: 0x84EA, size: 0x8, addend: 0x0, symName: __ZNKSt3__19basic_iosIcNS_11char_traitsIcEEE5rdbufB8ue170006Ev, symObjAddr: 0xE80, symBinAddr: 0x100002FBC, symSize: 0x24 }
  - { offsetInCU: 0x8510, offset: 0x8510, size: 0x8, addend: 0x0, symName: __ZNKSt3__18ios_base5rdbufB8ue170006Ev, symObjAddr: 0xEA4, symBinAddr: 0x100002FE0, symSize: 0x18 }
  - { offsetInCU: 0x8535, offset: 0x8535, size: 0x8, addend: 0x0, symName: __ZNSt3__111char_traitsIcE11eq_int_typeB8ue170006Eii, symObjAddr: 0xEBC, symBinAddr: 0x100002FF8, symSize: 0x28 }
  - { offsetInCU: 0x8568, offset: 0x8568, size: 0x8, addend: 0x0, symName: __ZNSt3__111char_traitsIcE3eofB8ue170006Ev, symObjAddr: 0xEE4, symBinAddr: 0x100003020, symSize: 0x8 }
  - { offsetInCU: 0x857C, offset: 0x857C, size: 0x8, addend: 0x0, symName: __ZNKSt3__19basic_iosIcNS_11char_traitsIcEEE5widenB8ue170006Ec, symObjAddr: 0xEEC, symBinAddr: 0x100003028, symSize: 0x8C }
  - { offsetInCU: 0x85E8, offset: 0x85E8, size: 0x8, addend: 0x0, symName: __ZNKSt3__15ctypeIcE5widenB8ue170006Ec, symObjAddr: 0xFA4, symBinAddr: 0x1000030E0, symSize: 0x38 }
  - { offsetInCU: 0x861C, offset: 0x861C, size: 0x8, addend: 0x0, symName: __ZNSt3__18ios_base8setstateB8ue170006Ej, symObjAddr: 0xFDC, symBinAddr: 0x100003118, symSize: 0x34 }
  - { offsetInCU: 0x8652, offset: 0x8652, size: 0x8, addend: 0x0, symName: __ZNSt3__111char_traitsIcE6lengthB8ue170006EPKc, symObjAddr: 0x1010, symBinAddr: 0x10000314C, symSize: 0x48 }
  - { offsetInCU: 0x8675, offset: 0x8675, size: 0x8, addend: 0x0, symName: __ZNSt3__18_IterOpsINS_17_ClassicAlgPolicyEE4nextB8ue170006IPiEET_S5_S5_, symObjAddr: 0x1284, symBinAddr: 0x1000033C0, symSize: 0x18 }
  - { offsetInCU: 0x86BF, offset: 0x86BF, size: 0x8, addend: 0x0, symName: __ZNKSt3__16__lessIvvEclB8ue170006IiiEEbRKT_RKT0_, symObjAddr: 0x1464, symBinAddr: 0x1000035A0, symSize: 0x34 }
  - { offsetInCU: 0x8717, offset: 0x8717, size: 0x8, addend: 0x0, symName: __ZNSt3__18_IterOpsINS_17_ClassicAlgPolicyEE9iter_swapB8ue170006IRPiS5_EEvOT_OT0_, symObjAddr: 0x1498, symBinAddr: 0x1000035D4, symSize: 0x34 }
  - { offsetInCU: 0x875F, offset: 0x875F, size: 0x8, addend: 0x0, symName: __ZNSt3__18_IterOpsINS_17_ClassicAlgPolicyEE11__iter_moveB8ue170006IRPiEENS_9enable_ifIXsr12is_referenceIDTdeclsr3stdE7declvalIRT_EEEEE5valueEDTclsr3stdE4movedeclsr3stdE7declvalIS8_EEEEE4typeEOS7_, symObjAddr: 0x17E8, symBinAddr: 0x100003924, symSize: 0x28 }
  - { offsetInCU: 0x878B, offset: 0x878B, size: 0x8, addend: 0x0, symName: __ZNSt3__18_IterOpsINS_17_ClassicAlgPolicyEE25__validate_iter_referenceB8ue170006IRPiEEvv, symObjAddr: 0x1810, symBinAddr: 0x10000394C, symSize: 0x4 }
  - { offsetInCU: 0x87A9, offset: 0x87A9, size: 0x8, addend: 0x0, symName: __ZNSt3__118__unwrap_iter_implIPiLb1EE8__unwrapB8ue170006ES1_, symObjAddr: 0x1B24, symBinAddr: 0x100003C60, symSize: 0x24 }
...
